ccopy_reg
_reconstructor
p0
(cnetworkx.classes.digraph
DiGraph
p1
c__builtin__
object
p2
Ntp3
Rp4
(dp5
S'node'
p6
(dp7
V3
p8
(dp9
sV2
p10
(dp11
sV7
p12
(dp13
ssS'node_dict_factory'
p14
c__builtin__
dict
p15
sS'edge_attr_dict_factory'
p16
g15
sS'succ'
p17
(dp18
g8
(dp19
sg10
(dp20
sg12
(dp21
ssS'edge'
p22
g18
sS'graph'
p23
(dp24
sS'adjlist_dict_factory'
p25
g15
sS'adj'
p26
g18
sS'pred'
p27
(dp28
g8
(dp29
sg10
(dp30
sg12
(dp31
ssb.