ccopy_reg
_reconstructor
p0
(cnetworkx.classes.digraph
DiGraph
p1
c__builtin__
object
p2
Ntp3
Rp4
(dp5
S'node'
p6
(dp7
V1
p8
(dp9
sV3
p10
(dp11
ssS'node_dict_factory'
p12
c__builtin__
dict
p13
sS'edge_attr_dict_factory'
p14
g13
sS'succ'
p15
(dp16
g8
(dp17
sg10
(dp18
ssS'edge'
p19
g16
sS'graph'
p20
(dp21
sS'adjlist_dict_factory'
p22
g13
sS'adj'
p23
g16
sS'pred'
p24
(dp25
g8
(dp26
sg10
(dp27
ssb.