ccopy_reg
_reconstructor
p0
(cnetworkx.classes.digraph
DiGraph
p1
c__builtin__
object
p2
Ntp3
Rp4
(dp5
S'node'
p6
(dp7
V1
p8
(dp9
sV3
p10
(dp11
sV2
p12
(dp13
sV4
p14
(dp15
ssS'node_dict_factory'
p16
c__builtin__
dict
p17
sS'edge_attr_dict_factory'
p18
g17
sS'succ'
p19
(dp20
g8
(dp21
g12
(dp22
ssg10
(dp23
g14
(dp24
ssg12
(dp25
sg14
(dp26
ssS'edge'
p27
g20
sS'graph'
p28
(dp29
sS'adjlist_dict_factory'
p30
g17
sS'adj'
p31
g20
sS'pred'
p32
(dp33
g8
(dp34
sg10
(dp35
sg12
(dp36
g8
g22
ssg14
(dp37
g10
g24
sssb.